target datalayout = "e-m:e-p270:32:32-p271:32:32-p272:64:64-i64:64-i128:128-f80:128-n8:16:32:64-S128"
target triple = "x86_64-pc-linux-gnu"

%struct.IPAddressFamily_st = type { ptr, ptr }
%struct.IPAddressChoice_st = type { i32, %union.anon }
%union.anon = type { ptr }

; Function Attrs: inlinehint nounwind uwtable
define internal ptr @ossl_check_const_IPAddressFamily_sk_type(ptr noundef %0) #3 {
  %2 = alloca ptr, align 8
  store ptr %0, ptr %2, align 8, !tbaa !35
  %3 = load ptr, ptr %2, align 8, !tbaa !35
  ret ptr %3
}

; Function Attrs: nounwind uwtable
define i32 @X509v3_addr_inherits(ptr noundef %0) #0 {
  %2 = alloca i32, align 4
  %3 = alloca ptr, align 8
  %4 = alloca i32, align 4
  %5 = alloca i32, align 4
  %6 = alloca ptr, align 8
  store ptr %0, ptr %3, align 8, !tbaa !35
  call void @llvm.lifetime.start.p0(i64 4, ptr %4) #9
  %7 = load ptr, ptr %3, align 8, !tbaa !35
  %8 = icmp eq ptr %7, null
  br i1 %8, label %9, label %10

9:                                                ; preds = %1
  store i32 0, ptr %2, align 4
  store i32 1, ptr %5, align 4
  br label %37

10:                                               ; preds = %1
  store i32 0, ptr %4, align 4, !tbaa !37
  br label %11

11:                                               ; preds = %33, %10
  %12 = load i32, ptr %4, align 4, !tbaa !37
  %13 = load ptr, ptr %3, align 8, !tbaa !35
  %14 = call ptr @ossl_check_const_IPAddressFamily_sk_type(ptr noundef %13)
  %15 = call i32 @OPENSSL_sk_num(ptr noundef %14)
  %16 = icmp slt i32 %12, %15
  br i1 %16, label %17, label %36

17:                                               ; preds = %11
  call void @llvm.lifetime.start.p0(i64 8, ptr %6) #9
  %18 = load ptr, ptr %3, align 8, !tbaa !35
  %19 = call ptr @ossl_check_const_IPAddressFamily_sk_type(ptr noundef %18)
  %20 = load i32, ptr %4, align 4, !tbaa !37
  %21 = call ptr @OPENSSL_sk_value(ptr noundef %19, i32 noundef %20)
  store ptr %21, ptr %6, align 8, !tbaa !24
  %22 = load ptr, ptr %6, align 8, !tbaa !24
  %23 = getelementptr inbounds nuw %struct.IPAddressFamily_st, ptr %22, i32 0, i32 1
  %24 = load ptr, ptr %23, align 8, !tbaa !40
  %25 = getelementptr inbounds nuw %struct.IPAddressChoice_st, ptr %24, i32 0, i32 0
  %26 = load i32, ptr %25, align 8, !tbaa !41
  %27 = icmp eq i32 %26, 0
  br i1 %27, label %28, label %29

28:                                               ; preds = %17
  store i32 1, ptr %2, align 4
  store i32 1, ptr %5, align 4
  br label %30

29:                                               ; preds = %17
  store i32 0, ptr %5, align 4
  br label %30

30:                                               ; preds = %29, %28
  call void @llvm.lifetime.end.p0(i64 8, ptr %6) #9
  %31 = load i32, ptr %5, align 4
  switch i32 %31, label %37 [
    i32 0, label %32
  ]

32:                                               ; preds = %30
  br label %33

33:                                               ; preds = %32
  %34 = load i32, ptr %4, align 4, !tbaa !37
  %35 = add nsw i32 %34, 1
  store i32 %35, ptr %4, align 4, !tbaa !37
  br label %11, !llvm.loop !82

36:                                               ; preds = %11
  store i32 0, ptr %2, align 4
  store i32 1, ptr %5, align 4
  br label %37

37:                                               ; preds = %36, %30, %9
  call void @llvm.lifetime.end.p0(i64 4, ptr %4) #9
  %38 = load i32, ptr %2, align 4
  ret i32 %38
}