; Function Attrs: nounwind uwtable
define range(i32 0, 2) i32 @X509v3_addr_inherits(ptr noundef %0) local_unnamed_addr #1 {
  %2 = icmp eq ptr %0, null
  br i1 %2, label %.loopexit, label %.preheader

.preheader:                                       ; preds = %1
  %3 = tail call i32 @OPENSSL_sk_num(ptr noundef nonnull %0) #15
  %4 = icmp sgt i32 %3, 0
  br i1 %4, label %.lr.ph, label %.loopexit

5:                                                ; preds = %.lr.ph
  %6 = add nuw nsw i32 %.0911, 1
  %7 = tail call i32 @OPENSSL_sk_num(ptr noundef nonnull %0) #15
  %8 = icmp slt i32 %6, %7
  br i1 %8, label %.lr.ph, label %.loopexit, !llvm.loop !53

.lr.ph:                                           ; preds = %.preheader, %5
  %.0911 = phi i32 [ %6, %5 ], [ 0, %.preheader ]
  %9 = tail call ptr @OPENSSL_sk_value(ptr noundef nonnull %0, i32 noundef %.0911) #15
  %10 = getelementptr inbounds nuw i8, ptr %9, i64 8
  %11 = load ptr, ptr %10, align 8, !tbaa !17
  %12 = load i32, ptr %11, align 8, !tbaa !18
  %.not = icmp eq i32 %12, 0
  br i1 %.not, label %.loopexit, label %5

.loopexit:                                        ; preds = %.lr.ph, %5, %.preheader, %1
  %.0 = phi i32 [ 0, %1 ], [ 0, %.preheader ], [ 1, %.lr.ph ], [ 0, %5 ]
  ret i32 %.0
}